; Function Attrs: mustprogress nounwind uwtable
define hidden void @_ZN22SystemProcessInterface15SystemProcesses15ProcessIteratorD2Ev(ptr nocapture noundef nonnull readonly align 8 dereferenceable(8209) %0) unnamed_addr #0 align 2 {
  %2 = load ptr, ptr %0, align 8
  %.not = icmp eq ptr %2, null
  br i1 %.not, label %5, label %3

3:                                                ; preds = %1
  %4 = tail call noundef i32 @_ZN2os8closedirEP11__dirstream(ptr noundef nonnull %2) #18
  br label %5

5:                                                ; preds = %3, %1
  ret void
}